target datalayout = "e-m:e-p270:32:32-p271:32:32-p272:64:64-i64:64-i128:128-f80:128-n8:16:32:64-S128"
target triple = "x86_64-pc-linux-gnu"

%struct.ref_msg = type { ptr, ptr, ptr, ptr }
%struct.used_atom = type { i32, ptr, i32, i32, %union.anon }
%union.anon = type { %struct.anon.1 }
%struct.anon.1 = type { i32, %struct.process_trailer_options, ptr, i32 }
%struct.process_trailer_options = type { i32, i32, i32, i32, i32, i32, i32, i32, ptr, ptr, ptr, ptr }
%struct.anon.0 = type { i32, %struct.refname_atom, i8 }
%struct.refname_atom = type { i32, i32, i32 }

@msgs = internal global %struct.ref_msg { ptr @.str, ptr @.str.1, ptr @.str.2, ptr @.str.3 }, align 8
@.str.16 = private unnamed_addr constant [13 x i8] c"ref-filter.c\00", align 1
@.str.24 = private unnamed_addr constant [1 x i8] zeroinitializer, align 1
@.str.165 = private unnamed_addr constant [5 x i8] c"[%s]\00", align 1
@.str.166 = private unnamed_addr constant [2 x i8] c"=\00", align 1
@.str.167 = private unnamed_addr constant [2 x i8] c"<\00", align 1
@.str.168 = private unnamed_addr constant [2 x i8] c">\00", align 1
@.str.169 = private unnamed_addr constant [3 x i8] c"<>\00", align 1
@.str.170 = private unnamed_addr constant [20 x i8] c"unhandled RR_* enum\00", align 1

; Function Attrs: nounwind uwtable
define internal void @fill_remote_ref_details(ptr noundef %0, ptr noundef %1, ptr noundef %2, ptr noundef %3) #0 {
  %5 = alloca ptr, align 8
  %6 = alloca ptr, align 8
  %7 = alloca ptr, align 8
  %8 = alloca ptr, align 8
  %9 = alloca i32, align 4
  %10 = alloca i32, align 4
  %11 = alloca ptr, align 8
  %12 = alloca i32, align 4
  %13 = alloca i32, align 4
  %14 = alloca ptr, align 8
  %15 = alloca ptr, align 8
  store ptr %0, ptr %5, align 8, !tbaa !26
  store ptr %1, ptr %6, align 8, !tbaa !13
  store ptr %2, ptr %7, align 8, !tbaa !249
  store ptr %3, ptr %8, align 8, !tbaa !53
  call void @llvm.lifetime.start.p0(i64 4, ptr %9) #11
  call void @llvm.lifetime.start.p0(i64 4, ptr %10) #11
  %16 = load ptr, ptr %5, align 8, !tbaa !26
  %17 = getelementptr inbounds nuw %struct.used_atom, ptr %16, i32 0, i32 4
  %18 = getelementptr inbounds nuw %struct.anon.0, ptr %17, i32 0, i32 0
  %19 = load i32, ptr %18, align 8, !tbaa !14
  %20 = icmp eq i32 %19, 0
  br i1 %20, label %21, label %28

21:                                               ; preds = %4
  %22 = load ptr, ptr %5, align 8, !tbaa !26
  %23 = getelementptr inbounds nuw %struct.used_atom, ptr %22, i32 0, i32 4
  %24 = getelementptr inbounds nuw %struct.anon.0, ptr %23, i32 0, i32 1
  %25 = load ptr, ptr %6, align 8, !tbaa !13
  %26 = call ptr @show_ref(ptr noundef %24, ptr noundef %25)
  %27 = load ptr, ptr %8, align 8, !tbaa !53
  store ptr %26, ptr %27, align 8, !tbaa !13
  br label %216

28:                                               ; preds = %4
  %29 = load ptr, ptr %5, align 8, !tbaa !26
  %30 = getelementptr inbounds nuw %struct.used_atom, ptr %29, i32 0, i32 4
  %31 = getelementptr inbounds nuw %struct.anon.0, ptr %30, i32 0, i32 0
  %32 = load i32, ptr %31, align 8, !tbaa !14
  %33 = icmp eq i32 %32, 1
  br i1 %33, label %34, label %107

34:                                               ; preds = %28
  %35 = load ptr, ptr %7, align 8, !tbaa !249
  %36 = load ptr, ptr %5, align 8, !tbaa !26
  %37 = getelementptr inbounds nuw %struct.used_atom, ptr %36, i32 0, i32 4
  %38 = getelementptr inbounds nuw %struct.anon.0, ptr %37, i32 0, i32 2
  %39 = load i8, ptr %38, align 8
  %40 = lshr i8 %39, 1
  %41 = and i8 %40, 1
  %42 = zext i8 %41 to i32
  %43 = call i32 @stat_tracking_info(ptr noundef %35, ptr noundef %9, ptr noundef %10, ptr noundef null, i32 noundef %42, i32 noundef 1)
  %44 = icmp slt i32 %43, 0
  br i1 %44, label %45, label %49

45:                                               ; preds = %34
  %46 = load ptr, ptr @msgs, align 8, !tbaa !4
  %47 = call ptr @xstrdup(ptr noundef %46)
  %48 = load ptr, ptr %8, align 8, !tbaa !53
  store ptr %47, ptr %48, align 8, !tbaa !13
  br label %83

49:                                               ; preds = %34
  %50 = load i32, ptr %9, align 4, !tbaa !15
  %51 = icmp ne i32 %50, 0
  br i1 %51, label %58, label %52

52:                                               ; preds = %49
  %53 = load i32, ptr %10, align 4, !tbaa !15
  %54 = icmp ne i32 %53, 0
  br i1 %54, label %58, label %55

55:                                               ; preds = %52
  %56 = call ptr @xstrdup(ptr noundef @.str.24)
  %57 = load ptr, ptr %8, align 8, !tbaa !53
  store ptr %56, ptr %57, align 8, !tbaa !13
  br label %82

58:                                               ; preds = %52, %49
  %59 = load i32, ptr %9, align 4, !tbaa !15
  %60 = icmp ne i32 %59, 0
  br i1 %60, label %66, label %61

61:                                               ; preds = %58
  %62 = load ptr, ptr getelementptr inbounds nuw (%struct.ref_msg, ptr @msgs, i32 0, i32 2), align 8, !tbaa !11
  %63 = load i32, ptr %10, align 4, !tbaa !15
  %64 = call ptr (ptr, ...) @xstrfmt(ptr noundef %62, i32 noundef %63)
  %65 = load ptr, ptr %8, align 8, !tbaa !53
  store ptr %64, ptr %65, align 8, !tbaa !13
  br label %81

66:                                               ; preds = %58
  %67 = load i32, ptr %10, align 4, !tbaa !15
  %68 = icmp ne i32 %67, 0
  br i1 %68, label %74, label %69

69:                                               ; preds = %66
  %70 = load ptr, ptr getelementptr inbounds nuw (%struct.ref_msg, ptr @msgs, i32 0, i32 1), align 8, !tbaa !10
  %71 = load i32, ptr %9, align 4, !tbaa !15
  %72 = call ptr (ptr, ...) @xstrfmt(ptr noundef %70, i32 noundef %71)
  %73 = load ptr, ptr %8, align 8, !tbaa !53
  store ptr %72, ptr %73, align 8, !tbaa !13
  br label %80

74:                                               ; preds = %66
  %75 = load ptr, ptr getelementptr inbounds nuw (%struct.ref_msg, ptr @msgs, i32 0, i32 3), align 8, !tbaa !12
  %76 = load i32, ptr %9, align 4, !tbaa !15
  %77 = load i32, ptr %10, align 4, !tbaa !15
  %78 = call ptr (ptr, ...) @xstrfmt(ptr noundef %75, i32 noundef %76, i32 noundef %77)
  %79 = load ptr, ptr %8, align 8, !tbaa !53
  store ptr %78, ptr %79, align 8, !tbaa !13
  br label %80

80:                                               ; preds = %74, %69
  br label %81

81:                                               ; preds = %80, %61
  br label %82

82:                                               ; preds = %81, %55
  br label %83

83:                                               ; preds = %82, %45
  %84 = load ptr, ptr %5, align 8, !tbaa !26
  %85 = getelementptr inbounds nuw %struct.used_atom, ptr %84, i32 0, i32 4
  %86 = getelementptr inbounds nuw %struct.anon.0, ptr %85, i32 0, i32 2
  %87 = load i8, ptr %86, align 8
  %88 = and i8 %87, 1
  %89 = zext i8 %88 to i32
  %90 = icmp ne i32 %89, 0
  br i1 %90, label %106, label %91

91:                                               ; preds = %83
  %92 = load ptr, ptr %8, align 8, !tbaa !53
  %93 = getelementptr inbounds ptr, ptr %92, i64 0
  %94 = load ptr, ptr %93, align 8, !tbaa !13
  %95 = load i8, ptr %94, align 1, !tbaa !14
  %96 = sext i8 %95 to i32
  %97 = icmp ne i32 %96, 0
  br i1 %97, label %98, label %106

98:                                               ; preds = %91
  call void @llvm.lifetime.start.p0(i64 8, ptr %11) #11
  %99 = load ptr, ptr %8, align 8, !tbaa !53
  %100 = load ptr, ptr %99, align 8, !tbaa !13
  store ptr %100, ptr %11, align 8, !tbaa !13
  %101 = load ptr, ptr %8, align 8, !tbaa !53
  %102 = load ptr, ptr %101, align 8, !tbaa !13
  %103 = call ptr (ptr, ...) @xstrfmt(ptr noundef @.str.165, ptr noundef %102)
  %104 = load ptr, ptr %8, align 8, !tbaa !53
  store ptr %103, ptr %104, align 8, !tbaa !13
  %105 = load ptr, ptr %11, align 8, !tbaa !13
  call void @free(ptr noundef %105) #11
  call void @llvm.lifetime.end.p0(i64 8, ptr %11) #11
  br label %106

106:                                              ; preds = %98, %91, %83
  br label %215

107:                                              ; preds = %28
  %108 = load ptr, ptr %5, align 8, !tbaa !26
  %109 = getelementptr inbounds nuw %struct.used_atom, ptr %108, i32 0, i32 4
  %110 = getelementptr inbounds nuw %struct.anon.0, ptr %109, i32 0, i32 0
  %111 = load i32, ptr %110, align 8, !tbaa !14
  %112 = icmp eq i32 %111, 2
  br i1 %112, label %113, label %154

113:                                              ; preds = %107
  %114 = load ptr, ptr %7, align 8, !tbaa !249
  %115 = load ptr, ptr %5, align 8, !tbaa !26
  %116 = getelementptr inbounds nuw %struct.used_atom, ptr %115, i32 0, i32 4
  %117 = getelementptr inbounds nuw %struct.anon.0, ptr %116, i32 0, i32 2
  %118 = load i8, ptr %117, align 8
  %119 = lshr i8 %118, 1
  %120 = and i8 %119, 1
  %121 = zext i8 %120 to i32
  %122 = call i32 @stat_tracking_info(ptr noundef %114, ptr noundef %9, ptr noundef %10, ptr noundef null, i32 noundef %121, i32 noundef 1)
  %123 = icmp slt i32 %122, 0
  br i1 %123, label %124, label %127

124:                                              ; preds = %113
  %125 = call ptr @xstrdup(ptr noundef @.str.24)
  %126 = load ptr, ptr %8, align 8, !tbaa !53
  store ptr %125, ptr %126, align 8, !tbaa !13
  store i32 1, ptr %12, align 4
  br label %217

127:                                              ; preds = %113
  %128 = load i32, ptr %9, align 4, !tbaa !15
  %129 = icmp ne i32 %128, 0
  br i1 %129, label %136, label %130

130:                                              ; preds = %127
  %131 = load i32, ptr %10, align 4, !tbaa !15
  %132 = icmp ne i32 %131, 0
  br i1 %132, label %136, label %133

133:                                              ; preds = %130
  %134 = call ptr @xstrdup(ptr noundef @.str.166)
  %135 = load ptr, ptr %8, align 8, !tbaa !53
  store ptr %134, ptr %135, align 8, !tbaa !13
  br label %153

136:                                              ; preds = %130, %127
  %137 = load i32, ptr %9, align 4, !tbaa !15
  %138 = icmp ne i32 %137, 0
  br i1 %138, label %142, label %139

139:                                              ; preds = %136
  %140 = call ptr @xstrdup(ptr noundef @.str.167)
  %141 = load ptr, ptr %8, align 8, !tbaa !53
  store ptr %140, ptr %141, align 8, !tbaa !13
  br label %152

142:                                              ; preds = %136
  %143 = load i32, ptr %10, align 4, !tbaa !15
  %144 = icmp ne i32 %143, 0
  br i1 %144, label %148, label %145

145:                                              ; preds = %142
  %146 = call ptr @xstrdup(ptr noundef @.str.168)
  %147 = load ptr, ptr %8, align 8, !tbaa !53
  store ptr %146, ptr %147, align 8, !tbaa !13
  br label %151

148:                                              ; preds = %142
  %149 = call ptr @xstrdup(ptr noundef @.str.169)
  %150 = load ptr, ptr %8, align 8, !tbaa !53
  store ptr %149, ptr %150, align 8, !tbaa !13
  br label %151

151:                                              ; preds = %148, %145
  br label %152

152:                                              ; preds = %151, %139
  br label %153

153:                                              ; preds = %152, %133
  br label %214

154:                                              ; preds = %107
  %155 = load ptr, ptr %5, align 8, !tbaa !26
  %156 = getelementptr inbounds nuw %struct.used_atom, ptr %155, i32 0, i32 4
  %157 = getelementptr inbounds nuw %struct.anon.0, ptr %156, i32 0, i32 0
  %158 = load i32, ptr %157, align 8, !tbaa !14
  %159 = icmp eq i32 %158, 3
  br i1 %159, label %160, label %186

160:                                              ; preds = %154
  call void @llvm.lifetime.start.p0(i64 4, ptr %13) #11
  call void @llvm.lifetime.start.p0(i64 8, ptr %14) #11
  %161 = load ptr, ptr %5, align 8, !tbaa !26
  %162 = getelementptr inbounds nuw %struct.used_atom, ptr %161, i32 0, i32 4
  %163 = getelementptr inbounds nuw %struct.anon.0, ptr %162, i32 0, i32 2
  %164 = load i8, ptr %163, align 8
  %165 = lshr i8 %164, 1
  %166 = and i8 %165, 1
  %167 = zext i8 %166 to i32
  %168 = icmp ne i32 %167, 0
  br i1 %168, label %169, label %172

169:                                              ; preds = %160
  %170 = load ptr, ptr %7, align 8, !tbaa !249
  %171 = call ptr @pushremote_for_branch(ptr noundef %170, ptr noundef %13)
  br label %175

172:                                              ; preds = %160
  %173 = load ptr, ptr %7, align 8, !tbaa !249
  %174 = call ptr @remote_for_branch(ptr noundef %173, ptr noundef %13)
  br label %175

175:                                              ; preds = %172, %169
  %176 = phi ptr [ %171, %169 ], [ %174, %172 ]
  store ptr %176, ptr %14, align 8, !tbaa !13
  %177 = load i32, ptr %13, align 4, !tbaa !15
  %178 = icmp ne i32 %177, 0
  br i1 %178, label %179, label %181

179:                                              ; preds = %175
  %180 = load ptr, ptr %14, align 8, !tbaa !13
  br label %182

181:                                              ; preds = %175
  br label %182

182:                                              ; preds = %181, %179
  %183 = phi ptr [ %180, %179 ], [ @.str.24, %181 ]
  %184 = call ptr @xstrdup(ptr noundef %183)
  %185 = load ptr, ptr %8, align 8, !tbaa !53
  store ptr %184, ptr %185, align 8, !tbaa !13
  call void @llvm.lifetime.end.p0(i64 8, ptr %14) #11
  call void @llvm.lifetime.end.p0(i64 4, ptr %13) #11
  br label %213

186:                                              ; preds = %154
  %187 = load ptr, ptr %5, align 8, !tbaa !26
  %188 = getelementptr inbounds nuw %struct.used_atom, ptr %187, i32 0, i32 4
  %189 = getelementptr inbounds nuw %struct.anon.0, ptr %188, i32 0, i32 0
  %190 = load i32, ptr %189, align 8, !tbaa !14
  %191 = icmp eq i32 %190, 4
  br i1 %191, label %192, label %211

192:                                              ; preds = %186
  call void @llvm.lifetime.start.p0(i64 8, ptr %15) #11
  %193 = load ptr, ptr %7, align 8, !tbaa !249
  %194 = load ptr, ptr %5, align 8, !tbaa !26
  %195 = getelementptr inbounds nuw %struct.used_atom, ptr %194, i32 0, i32 4
  %196 = getelementptr inbounds nuw %struct.anon.0, ptr %195, i32 0, i32 2
  %197 = load i8, ptr %196, align 8
  %198 = lshr i8 %197, 1
  %199 = and i8 %198, 1
  %200 = zext i8 %199 to i32
  %201 = call ptr @remote_ref_for_branch(ptr noundef %193, i32 noundef %200)
  store ptr %201, ptr %15, align 8, !tbaa !13
  %202 = load ptr, ptr %15, align 8, !tbaa !13
  %203 = icmp ne ptr %202, null
  br i1 %203, label %204, label %206

204:                                              ; preds = %192
  %205 = load ptr, ptr %15, align 8, !tbaa !13
  br label %208

206:                                              ; preds = %192
  %207 = call ptr @xstrdup(ptr noundef @.str.24)
  br label %208

208:                                              ; preds = %206, %204
  %209 = phi ptr [ %205, %204 ], [ %207, %206 ]
  %210 = load ptr, ptr %8, align 8, !tbaa !53
  store ptr %209, ptr %210, align 8, !tbaa !13
  call void @llvm.lifetime.end.p0(i64 8, ptr %15) #11
  br label %212

211:                                              ; preds = %186
  call void (ptr, i32, ptr, ...) @BUG_fl(ptr noundef @.str.16, i32 noundef 2245, ptr noundef @.str.170) #13
  unreachable

212:                                              ; preds = %208
  br label %213

213:                                              ; preds = %212, %182
  br label %214

214:                                              ; preds = %213, %153
  br label %215

215:                                              ; preds = %214, %106
  br label %216

216:                                              ; preds = %215, %21
  store i32 0, ptr %12, align 4
  br label %217

217:                                              ; preds = %216, %124
  call void @llvm.lifetime.end.p0(i64 4, ptr %10) #11
  call void @llvm.lifetime.end.p0(i64 4, ptr %9) #11
  %218 = load i32, ptr %12, align 4
  switch i32 %218, label %220 [
    i32 0, label %219
    i32 1, label %219
  ]

219:                                              ; preds = %217, %217
  ret void

220:                                              ; preds = %217
  unreachable
}