; Function Attrs: nounwind uwtable
define internal fastcc void @fill_remote_ref_details(ptr noundef readonly captures(none) %0, ptr noundef %1, ptr noundef %2, ptr noundef writeonly captures(none) %3) unnamed_addr #0 {
  %5 = alloca i32, align 4
  %6 = alloca i32, align 4
  %7 = alloca i32, align 4
  call void @llvm.lifetime.start.p0(i64 4, ptr nonnull %5) #23
  call void @llvm.lifetime.start.p0(i64 4, ptr nonnull %6) #23
  %8 = getelementptr inbounds nuw i8, ptr %0, i64 24
  %9 = load i32, ptr %8, align 8, !tbaa !15
  switch i32 %9, label %98 [
    i32 0, label %10
    i32 1, label %13
    i32 2, label %49
    i32 3, label %74
    i32 4, label %87
  ]

10:                                               ; preds = %4
  %11 = getelementptr inbounds nuw i8, ptr %0, i64 28
  %12 = tail call fastcc ptr @show_ref(ptr noundef nonnull %11, ptr noundef %1)
  store ptr %12, ptr %3, align 8, !tbaa !59
  br label %99

13:                                               ; preds = %4
  %14 = getelementptr inbounds nuw i8, ptr %0, i64 40
  %15 = load i8, ptr %14, align 8
  %16 = lshr i8 %15, 1
  %17 = and i8 %16, 1
  %18 = zext nneg i8 %17 to i32
  %19 = call i32 @stat_tracking_info(ptr noundef %2, ptr noundef nonnull %5, ptr noundef nonnull %6, ptr noundef null, i32 noundef %18, i32 noundef 1) #23
  %20 = icmp slt i32 %19, 0
  br i1 %20, label %21, label %24

21:                                               ; preds = %13
  %22 = load ptr, ptr @msgs.0, align 8, !tbaa !8
  %23 = call ptr @xstrdup(ptr noundef %22) #23
  br label %42

24:                                               ; preds = %13
  %25 = load i32, ptr %5, align 4, !tbaa !4
  %26 = icmp ne i32 %25, 0
  %27 = load i32, ptr %6, align 4
  %28 = icmp ne i32 %27, 0
  %or.cond = select i1 %26, i1 true, i1 %28
  br i1 %or.cond, label %31, label %29

29:                                               ; preds = %24
  %30 = call ptr @xstrdup(ptr noundef nonnull @.str.24) #23
  br label %42

31:                                               ; preds = %24
  br i1 %26, label %35, label %32

32:                                               ; preds = %31
  %33 = load ptr, ptr @msgs.2, align 8, !tbaa !13
  %34 = call ptr (ptr, ...) @xstrfmt(ptr noundef %33, i32 noundef %27) #23
  br label %42

35:                                               ; preds = %31
  br i1 %28, label %39, label %36

36:                                               ; preds = %35
  %37 = load ptr, ptr @msgs.1, align 8, !tbaa !12
  %38 = call ptr (ptr, ...) @xstrfmt(ptr noundef %37, i32 noundef %25) #23
  br label %42

39:                                               ; preds = %35
  %40 = load ptr, ptr @msgs.3, align 8, !tbaa !14
  %41 = call ptr (ptr, ...) @xstrfmt(ptr noundef %40, i32 noundef %25, i32 noundef %27) #23
  br label %42

42:                                               ; preds = %29, %36, %39, %32, %21
  %.sink = phi ptr [ %30, %29 ], [ %38, %36 ], [ %41, %39 ], [ %34, %32 ], [ %23, %21 ]
  store ptr %.sink, ptr %3, align 8, !tbaa !59
  %43 = load i8, ptr %14, align 8
  %44 = and i8 %43, 1
  %.not46 = icmp eq i8 %44, 0
  br i1 %.not46, label %45, label %99

45:                                               ; preds = %42
  %46 = load i8, ptr %.sink, align 1, !tbaa !15
  %.not47 = icmp eq i8 %46, 0
  br i1 %.not47, label %99, label %47

47:                                               ; preds = %45
  %48 = call ptr (ptr, ...) @xstrfmt(ptr noundef nonnull @.str.165, ptr noundef nonnull %.sink) #23
  store ptr %48, ptr %3, align 8, !tbaa !59
  call void @free(ptr noundef nonnull %.sink) #23
  br label %99

49:                                               ; preds = %4
  %50 = getelementptr inbounds nuw i8, ptr %0, i64 40
  %51 = load i8, ptr %50, align 8
  %52 = lshr i8 %51, 1
  %53 = and i8 %52, 1
  %54 = zext nneg i8 %53 to i32
  %55 = call i32 @stat_tracking_info(ptr noundef %2, ptr noundef nonnull %5, ptr noundef nonnull %6, ptr noundef null, i32 noundef %54, i32 noundef 1) #23
  %56 = icmp slt i32 %55, 0
  br i1 %56, label %57, label %59

57:                                               ; preds = %49
  %58 = call ptr @xstrdup(ptr noundef nonnull @.str.24) #23
  store ptr %58, ptr %3, align 8, !tbaa !59
  br label %99

59:                                               ; preds = %49
  %60 = load i32, ptr %5, align 4, !tbaa !4
  %61 = icmp ne i32 %60, 0
  %62 = load i32, ptr %6, align 4
  %63 = icmp ne i32 %62, 0
  %or.cond3 = select i1 %61, i1 true, i1 %63
  br i1 %or.cond3, label %66, label %64

64:                                               ; preds = %59
  %65 = call ptr @xstrdup(ptr noundef nonnull @.str.166) #23
  store ptr %65, ptr %3, align 8, !tbaa !59
  br label %99

66:                                               ; preds = %59
  br i1 %61, label %69, label %67

67:                                               ; preds = %66
  %68 = call ptr @xstrdup(ptr noundef nonnull @.str.167) #23
  store ptr %68, ptr %3, align 8, !tbaa !59
  br label %99

69:                                               ; preds = %66
  br i1 %63, label %72, label %70

70:                                               ; preds = %69
  %71 = call ptr @xstrdup(ptr noundef nonnull @.str.168) #23
  store ptr %71, ptr %3, align 8, !tbaa !59
  br label %99

72:                                               ; preds = %69
  %73 = call ptr @xstrdup(ptr noundef nonnull @.str.169) #23
  store ptr %73, ptr %3, align 8, !tbaa !59
  br label %99

74:                                               ; preds = %4
  call void @llvm.lifetime.start.p0(i64 4, ptr nonnull %7) #23
  %75 = getelementptr inbounds nuw i8, ptr %0, i64 40
  %76 = load i8, ptr %75, align 8
  %77 = and i8 %76, 2
  %.not44 = icmp eq i8 %77, 0
  br i1 %.not44, label %80, label %78

78:                                               ; preds = %74
  %79 = call ptr @pushremote_for_branch(ptr noundef %2, ptr noundef nonnull %7) #23
  br label %82

80:                                               ; preds = %74
  %81 = call ptr @remote_for_branch(ptr noundef %2, ptr noundef nonnull %7) #23
  br label %82

82:                                               ; preds = %80, %78
  %83 = phi ptr [ %79, %78 ], [ %81, %80 ]
  %84 = load i32, ptr %7, align 4, !tbaa !4
  %.not45 = icmp eq i32 %84, 0
  %85 = select i1 %.not45, ptr @.str.24, ptr %83
  %86 = call ptr @xstrdup(ptr noundef %85) #23
  store ptr %86, ptr %3, align 8, !tbaa !59
  call void @llvm.lifetime.end.p0(i64 4, ptr nonnull %7) #23
  br label %99

87:                                               ; preds = %4
  %88 = getelementptr inbounds nuw i8, ptr %0, i64 40
  %89 = load i8, ptr %88, align 8
  %90 = lshr i8 %89, 1
  %91 = and i8 %90, 1
  %92 = zext nneg i8 %91 to i32
  %93 = tail call ptr @remote_ref_for_branch(ptr noundef %2, i32 noundef %92) #23
  %.not = icmp eq ptr %93, null
  br i1 %.not, label %94, label %96

94:                                               ; preds = %87
  %95 = tail call ptr @xstrdup(ptr noundef nonnull @.str.24) #23
  br label %96

96:                                               ; preds = %87, %94
  %97 = phi ptr [ %95, %94 ], [ %93, %87 ]
  store ptr %97, ptr %3, align 8, !tbaa !59
  br label %99

98:                                               ; preds = %4
  tail call void (ptr, i32, ptr, ...) @BUG_fl(ptr noundef nonnull @.str.16, i32 noundef 2245, ptr noundef nonnull @.str.170) #25
  unreachable

99:                                               ; preds = %10, %67, %72, %70, %64, %96, %82, %42, %45, %47, %57
  call void @llvm.lifetime.end.p0(i64 4, ptr nonnull %6) #23
  call void @llvm.lifetime.end.p0(i64 4, ptr nonnull %5) #23
  ret void
}